target datalayout = "e-m:e-p270:32:32-p271:32:32-p272:64:64-i64:64-i128:128-f80:128-n8:16:32:64-S128"
target triple = "x86_64-pc-linux-gnu"

; Function Attrs: mustprogress nounwind uwtable
define dso_local noundef zeroext i1 @_ZN4Luau7CodeGen7compareEiiNS0_11IrConditionE(i32 noundef %0, i32 noundef %1, i8 noundef zeroext %2) #0 {
  %4 = alloca i1, align 1
  %5 = alloca i32, align 4
  %6 = alloca i32, align 4
  %7 = alloca i8, align 1
  store i32 %0, ptr %5, align 4, !tbaa !38
  store i32 %1, ptr %6, align 4, !tbaa !38
  store i8 %2, ptr %7, align 1, !tbaa !56
  %8 = load i8, ptr %7, align 1, !tbaa !56
  switch i8 %8, label %69 [
    i8 0, label %9
    i8 1, label %13
    i8 2, label %17
    i8 3, label %21
    i8 4, label %26
    i8 5, label %30
    i8 6, label %35
    i8 7, label %39
    i8 8, label %44
    i8 9, label %48
    i8 10, label %53
    i8 11, label %57
    i8 12, label %61
    i8 13, label %65
  ]

9:                                                ; preds = %3
  %10 = load i32, ptr %5, align 4, !tbaa !38
  %11 = load i32, ptr %6, align 4, !tbaa !38
  %12 = icmp eq i32 %10, %11
  store i1 %12, ptr %4, align 1
  br label %71

13:                                               ; preds = %3
  %14 = load i32, ptr %5, align 4, !tbaa !38
  %15 = load i32, ptr %6, align 4, !tbaa !38
  %16 = icmp ne i32 %14, %15
  store i1 %16, ptr %4, align 1
  br label %71

17:                                               ; preds = %3
  %18 = load i32, ptr %5, align 4, !tbaa !38
  %19 = load i32, ptr %6, align 4, !tbaa !38
  %20 = icmp slt i32 %18, %19
  store i1 %20, ptr %4, align 1
  br label %71

21:                                               ; preds = %3
  %22 = load i32, ptr %5, align 4, !tbaa !38
  %23 = load i32, ptr %6, align 4, !tbaa !38
  %24 = icmp slt i32 %22, %23
  %25 = xor i1 %24, true
  store i1 %25, ptr %4, align 1
  br label %71

26:                                               ; preds = %3
  %27 = load i32, ptr %5, align 4, !tbaa !38
  %28 = load i32, ptr %6, align 4, !tbaa !38
  %29 = icmp sle i32 %27, %28
  store i1 %29, ptr %4, align 1
  br label %71

30:                                               ; preds = %3
  %31 = load i32, ptr %5, align 4, !tbaa !38
  %32 = load i32, ptr %6, align 4, !tbaa !38
  %33 = icmp sle i32 %31, %32
  %34 = xor i1 %33, true
  store i1 %34, ptr %4, align 1
  br label %71

35:                                               ; preds = %3
  %36 = load i32, ptr %5, align 4, !tbaa !38
  %37 = load i32, ptr %6, align 4, !tbaa !38
  %38 = icmp sgt i32 %36, %37
  store i1 %38, ptr %4, align 1
  br label %71

39:                                               ; preds = %3
  %40 = load i32, ptr %5, align 4, !tbaa !38
  %41 = load i32, ptr %6, align 4, !tbaa !38
  %42 = icmp sgt i32 %40, %41
  %43 = xor i1 %42, true
  store i1 %43, ptr %4, align 1
  br label %71

44:                                               ; preds = %3
  %45 = load i32, ptr %5, align 4, !tbaa !38
  %46 = load i32, ptr %6, align 4, !tbaa !38
  %47 = icmp sge i32 %45, %46
  store i1 %47, ptr %4, align 1
  br label %71

48:                                               ; preds = %3
  %49 = load i32, ptr %5, align 4, !tbaa !38
  %50 = load i32, ptr %6, align 4, !tbaa !38
  %51 = icmp sge i32 %49, %50
  %52 = xor i1 %51, true
  store i1 %52, ptr %4, align 1
  br label %71

53:                                               ; preds = %3
  %54 = load i32, ptr %5, align 4, !tbaa !38
  %55 = load i32, ptr %6, align 4, !tbaa !38
  %56 = icmp ult i32 %54, %55
  store i1 %56, ptr %4, align 1
  br label %71

57:                                               ; preds = %3
  %58 = load i32, ptr %5, align 4, !tbaa !38
  %59 = load i32, ptr %6, align 4, !tbaa !38
  %60 = icmp ule i32 %58, %59
  store i1 %60, ptr %4, align 1
  br label %71

61:                                               ; preds = %3
  %62 = load i32, ptr %5, align 4, !tbaa !38
  %63 = load i32, ptr %6, align 4, !tbaa !38
  %64 = icmp ugt i32 %62, %63
  store i1 %64, ptr %4, align 1
  br label %71

65:                                               ; preds = %3
  %66 = load i32, ptr %5, align 4, !tbaa !38
  %67 = load i32, ptr %6, align 4, !tbaa !38
  %68 = icmp uge i32 %66, %67
  store i1 %68, ptr %4, align 1
  br label %71

69:                                               ; preds = %3
  br label %70

70:                                               ; preds = %69
  store i1 false, ptr %4, align 1
  br label %71

71:                                               ; preds = %70, %65, %61, %57, %53, %48, %44, %39, %35, %30, %26, %21, %17, %13, %9
  %72 = load i1, ptr %4, align 1
  ret i1 %72
}