; Function Attrs: mustprogress nofree norecurse nosync nounwind willreturn memory(none) uwtable
define dso_local noundef zeroext i1 @_ZN4Luau7CodeGen7compareEiiNS0_11IrConditionE(i32 noundef %0, i32 noundef %1, i8 noundef zeroext %2) local_unnamed_addr #0 {
  switch i8 %2, label %30 [
    i8 0, label %4
    i8 1, label %6
    i8 2, label %8
    i8 3, label %10
    i8 4, label %12
    i8 5, label %14
    i8 6, label %15
    i8 7, label %17
    i8 8, label %19
    i8 9, label %21
    i8 10, label %22
    i8 11, label %24
    i8 12, label %26
    i8 13, label %28
  ]

4:                                                ; preds = %3
  %5 = icmp eq i32 %0, %1
  br label %30

6:                                                ; preds = %3
  %7 = icmp ne i32 %0, %1
  br label %30

8:                                                ; preds = %3
  %9 = icmp slt i32 %0, %1
  br label %30

10:                                               ; preds = %3
  %11 = icmp sge i32 %0, %1
  br label %30

12:                                               ; preds = %3
  %13 = icmp sle i32 %0, %1
  br label %30

14:                                               ; preds = %3
  %.not29 = icmp sgt i32 %0, %1
  br label %30

15:                                               ; preds = %3
  %16 = icmp sgt i32 %0, %1
  br label %30

17:                                               ; preds = %3
  %18 = icmp sle i32 %0, %1
  br label %30

19:                                               ; preds = %3
  %20 = icmp sge i32 %0, %1
  br label %30

21:                                               ; preds = %3
  %.not = icmp slt i32 %0, %1
  br label %30

22:                                               ; preds = %3
  %23 = icmp ult i32 %0, %1
  br label %30

24:                                               ; preds = %3
  %25 = icmp ule i32 %0, %1
  br label %30

26:                                               ; preds = %3
  %27 = icmp ugt i32 %0, %1
  br label %30

28:                                               ; preds = %3
  %29 = icmp uge i32 %0, %1
  br label %30

30:                                               ; preds = %3, %28, %26, %24, %22, %21, %19, %17, %15, %14, %12, %10, %8, %6, %4
  %.0 = phi i1 [ %29, %28 ], [ %27, %26 ], [ %25, %24 ], [ %23, %22 ], [ %.not, %21 ], [ %20, %19 ], [ %18, %17 ], [ %16, %15 ], [ %.not29, %14 ], [ %13, %12 ], [ %11, %10 ], [ %9, %8 ], [ %7, %6 ], [ %5, %4 ], [ false, %3 ]
  ret i1 %.0
}